target datalayout = "e-m:e-p270:32:32-p271:32:32-p272:64:64-i64:64-i128:128-f80:128-n8:16:32:64-S128"
target triple = "x86_64-pc-linux-gnu"

%"class.cv::Mat_" = type { %"class.cv::Mat" }
%"class.cv::Mat" = type { i32, i32, i32, i32, ptr, ptr, ptr, ptr, ptr, ptr, %"struct.cv::MatSize", %"struct.cv::MatStep" }
%"struct.cv::MatSize" = type { ptr }
%"struct.cv::MatStep" = type { ptr, [2 x i64] }
%"class.cv::TrackingFunctionPF::TrackingHistogram" = type { %"class.cv::Mat_", %"class.cv::Mat_" }
%"class.cv::TrackingFunctionPF" = type { %"class.cv::PFSolver::Function", %"class.cv::Mat", i32, i32, i32, %"class.cv::TrackingFunctionPF::TrackingHistogram" }
%"class.cv::PFSolver::Function" = type { %"class.cv::MinProblemSolver::Function" }
%"class.cv::MinProblemSolver::Function" = type { ptr }

@_ZTVN2cv16MinProblemSolver8FunctionE = external unnamed_addr constant { [8 x ptr] }, align 8
@_ZN2cv18TrackingFunctionPF17TrackingHistogramC1ERKNS_3MatEiii = hidden unnamed_addr alias void (ptr, ptr, i32, i32, i32), ptr @_ZN2cv18TrackingFunctionPF17TrackingHistogramC2ERKNS_3MatEiii

; Function Attrs: inlinehint mustprogress nounwind uwtable
define linkonce_odr hidden void @_ZN2cv16MinProblemSolver8FunctionC2Ev(ptr noundef nonnull align 8 dereferenceable(8) %0) unnamed_addr #6 comdat align 2 {
  %2 = alloca ptr, align 8
  store ptr %0, ptr %2, align 8, !tbaa !100
  %3 = load ptr, ptr %2, align 8
  store ptr getelementptr inbounds inrange(-16, 48) ({ [8 x ptr] }, ptr @_ZTVN2cv16MinProblemSolver8FunctionE, i32 0, i32 0, i32 2), ptr %3, align 8, !tbaa !8
  ret void
}

; Function Attrs: mustprogress nounwind uwtable
define linkonce_odr hidden void @_ZN2cv16MinProblemSolver8FunctionD2Ev(ptr noundef nonnull align 8 dereferenceable(8) %0) unnamed_addr #8 comdat align 2 {
  %2 = alloca ptr, align 8
  store ptr %0, ptr %2, align 8, !tbaa !100
  ret void
}

; Function Attrs: inlinehint mustprogress nounwind uwtable
define linkonce_odr hidden void @_ZN2cv8PFSolver8FunctionC2Ev(ptr noundef nonnull align 8 dereferenceable(8) %0) unnamed_addr #6 comdat align 2 {
  %2 = alloca ptr, align 8
  store ptr %0, ptr %2, align 8, !tbaa !101
  %3 = load ptr, ptr %2, align 8
  call void @_ZN2cv16MinProblemSolver8FunctionC2Ev(ptr noundef nonnull align 8 dereferenceable(8) %3) #3
  store ptr getelementptr inbounds inrange(-16, 64) ({ [10 x ptr] }, ptr @_ZTVN2cv8PFSolver8FunctionE, i32 0, i32 0, i32 2), ptr %3, align 8, !tbaa !8
  ret void
}

; Function Attrs: mustprogress uwtable
define hidden void @_ZN2cv18TrackingFunctionPFC2ERKNS_3MatE(ptr noundef nonnull align 8 dereferenceable(312) %0, ptr noundef nonnull align 8 dereferenceable(96) %1) unnamed_addr #4 align 2 personality ptr @__gxx_personality_v0 {
  %3 = alloca ptr, align 8
  %4 = alloca ptr, align 8
  %5 = alloca ptr, align 8
  %6 = alloca i32, align 4
  store ptr %0, ptr %3, align 8, !tbaa !119
  store ptr %1, ptr %4, align 8, !tbaa !66
  %7 = load ptr, ptr %3, align 8
  call void @_ZN2cv8PFSolver8FunctionC2Ev(ptr noundef nonnull align 8 dereferenceable(8) %7) #3
  store ptr getelementptr inbounds inrange(-16, 64) ({ [10 x ptr] }, ptr @_ZTVN2cv18TrackingFunctionPFE, i32 0, i32 0, i32 2), ptr %7, align 8, !tbaa !8
  %8 = getelementptr inbounds nuw %"class.cv::TrackingFunctionPF", ptr %7, i32 0, i32 1
  call void @_ZN2cv3MatC1Ev(ptr noundef nonnull align 8 dereferenceable(96) %8) #3
  %9 = getelementptr inbounds nuw %"class.cv::TrackingFunctionPF", ptr %7, i32 0, i32 2
  store i32 50, ptr %9, align 8, !tbaa !121
  %10 = getelementptr inbounds nuw %"class.cv::TrackingFunctionPF", ptr %7, i32 0, i32 3
  store i32 50, ptr %10, align 4, !tbaa !126
  %11 = getelementptr inbounds nuw %"class.cv::TrackingFunctionPF", ptr %7, i32 0, i32 4
  store i32 50, ptr %11, align 8, !tbaa !127
  %12 = getelementptr inbounds nuw %"class.cv::TrackingFunctionPF", ptr %7, i32 0, i32 5
  %13 = load ptr, ptr %4, align 8, !tbaa !66
  %14 = getelementptr inbounds nuw %"class.cv::TrackingFunctionPF", ptr %7, i32 0, i32 2
  %15 = load i32, ptr %14, align 8, !tbaa !121
  %16 = getelementptr inbounds nuw %"class.cv::TrackingFunctionPF", ptr %7, i32 0, i32 3
  %17 = load i32, ptr %16, align 4, !tbaa !126
  %18 = getelementptr inbounds nuw %"class.cv::TrackingFunctionPF", ptr %7, i32 0, i32 4
  %19 = load i32, ptr %18, align 8, !tbaa !127
  invoke void @_ZN2cv18TrackingFunctionPF17TrackingHistogramC1ERKNS_3MatEiii(ptr noundef nonnull align 8 dereferenceable(192) %12, ptr noundef nonnull align 8 dereferenceable(96) %13, i32 noundef %15, i32 noundef %17, i32 noundef %19)
          to label %20 unwind label %21

20:                                               ; preds = %2
  ret void

21:                                               ; preds = %2
  %22 = landingpad { ptr, i32 }
          cleanup
  %23 = extractvalue { ptr, i32 } %22, 0
  store ptr %23, ptr %5, align 8
  %24 = extractvalue { ptr, i32 } %22, 1
  store i32 %24, ptr %6, align 4
  call void @_ZN2cv3MatD1Ev(ptr noundef nonnull align 8 dereferenceable(96) %8) #3
  call void @_ZN2cv16MinProblemSolver8FunctionD2Ev(ptr noundef nonnull align 8 dereferenceable(8) %7) #3
  br label %25

25:                                               ; preds = %21
  %26 = load ptr, ptr %5, align 8
  %27 = load i32, ptr %6, align 4
  %28 = insertvalue { ptr, i32 } poison, ptr %26, 0
  %29 = insertvalue { ptr, i32 } %28, i32 %27, 1
  resume { ptr, i32 } %29
}