; Function Attrs: mustprogress uwtable
define hidden void @_ZN2cv18TrackingFunctionPFC2ERKNS_3MatE(ptr noundef nonnull align 8 dereferenceable(312) initializes((0, 8)) %0, ptr noundef nonnull align 8 dereferenceable(96) %1) unnamed_addr #3 align 2 personality ptr @__gxx_personality_v0 {
  store ptr getelementptr inbounds nuw inrange(-16, 64) (i8, ptr @_ZTVN2cv18TrackingFunctionPFE, i64 16), ptr %0, align 8, !tbaa !3
  %3 = getelementptr inbounds nuw i8, ptr %0, i64 8
  tail call void @_ZN2cv3MatC1Ev(ptr noundef nonnull align 8 dereferenceable(96) %3) #30
  %4 = getelementptr inbounds nuw i8, ptr %0, i64 104
  store i32 50, ptr %4, align 8, !tbaa !133
  %5 = getelementptr inbounds nuw i8, ptr %0, i64 108
  store i32 50, ptr %5, align 4, !tbaa !138
  %6 = getelementptr inbounds nuw i8, ptr %0, i64 112
  store i32 50, ptr %6, align 8, !tbaa !139
  %7 = getelementptr inbounds nuw i8, ptr %0, i64 120
  invoke void @_ZN2cv18TrackingFunctionPF17TrackingHistogramC2ERKNS_3MatEiii(ptr noundef nonnull align 8 dereferenceable(192) %7, ptr noundef nonnull align 8 dereferenceable(96) %1, i32 noundef 50, i32 noundef 50, i32 noundef 50)
          to label %8 unwind label %9

8:                                                ; preds = %2
  ret void

9:                                                ; preds = %2
  %10 = landingpad { ptr, i32 }
          cleanup
  tail call void @_ZN2cv3MatD1Ev(ptr noundef nonnull align 8 dereferenceable(96) %3) #30
  resume { ptr, i32 } %10
}